; Function Attrs: mustprogress uwtable
define hidden noundef ptr @pj_etmerc(ptr noundef %0) local_unnamed_addr #0 {
  %.not = icmp eq ptr %0, null
  br i1 %.not, label %10, label %2

2:                                                ; preds = %1
  %3 = getelementptr inbounds nuw i8, ptr %0, i64 216
  %4 = load double, ptr %3, align 8, !tbaa !67
  %5 = fcmp oeq double %4, 0.000000e+00
  br i1 %5, label %6, label %8

6:                                                ; preds = %2
  tail call void (ptr, ptr, ...) @_Z14proj_log_errorPK8PJconstsPKcz(ptr noundef nonnull %0, ptr noundef nonnull @.str.3)
  %7 = tail call noundef ptr @_Z21pj_default_destructorP8PJconstsi(ptr noundef nonnull %0, i32 noundef 1027)
  br label %_Z35pj_projection_specific_setup_etmercP8PJconsts.exit

8:                                                ; preds = %2
  %9 = tail call fastcc noundef ptr @_ZL5setupP8PJconsts9TMercAlgo(ptr noundef nonnull %0, i32 noundef 2)
  br label %_Z35pj_projection_specific_setup_etmercP8PJconsts.exit

10:                                               ; preds = %1
  %11 = tail call noundef ptr @_Z6pj_newv()
  %12 = icmp eq ptr %11, null
  br i1 %12, label %_Z35pj_projection_specific_setup_etmercP8PJconsts.exit, label %13

13:                                               ; preds = %10
  %14 = getelementptr inbounds nuw i8, ptr %11, i64 8
  store ptr @.str.2, ptr %14, align 8, !tbaa !7
  %15 = getelementptr inbounds nuw i8, ptr %11, i64 16
  store ptr @_ZL10des_etmerc, ptr %15, align 8, !tbaa !38
  %16 = getelementptr inbounds nuw i8, ptr %11, i64 360
  store i32 1, ptr %16, align 8, !tbaa !39
  %17 = getelementptr inbounds nuw i8, ptr %11, i64 380
  store i32 4, ptr %17, align 4, !tbaa !40
  %18 = getelementptr inbounds nuw i8, ptr %11, i64 384
  store i32 1, ptr %18, align 8, !tbaa !41
  br label %_Z35pj_projection_specific_setup_etmercP8PJconsts.exit

_Z35pj_projection_specific_setup_etmercP8PJconsts.exit: ; preds = %8, %6, %10, %13
  %.0 = phi ptr [ %11, %13 ], [ null, %10 ], [ %7, %6 ], [ %9, %8 ]
  ret ptr %.0
}